; Function Attrs: mustprogress nounwind uwtable
define hidden void @_ZN12ConstantPool28verify_constant_pool_resolveERK18constantPoolHandleP5KlassP10JavaThread(ptr nocapture noundef nonnull readonly align 8 dereferenceable(16) %0, ptr noundef %1, ptr noundef %2) local_unnamed_addr #0 align 2 {
  %4 = getelementptr inbounds i8, ptr %1, i64 12
  %5 = load i32, ptr %4, align 4
  %6 = icmp slt i32 %5, 5
  %7 = icmp eq i32 %5, 6
  %or.cond = or i1 %6, %7
  br i1 %or.cond, label %8, label %12

8:                                                ; preds = %3
  %9 = load ptr, ptr %0, align 8
  %10 = getelementptr inbounds i8, ptr %9, i64 24
  %11 = load ptr, ptr %10, align 8
  tail call void @_ZN12LinkResolver25check_klass_accessibilityEP5KlassS1_P10JavaThread(ptr noundef %11, ptr noundef nonnull %1, ptr noundef %2) #17
  br label %12

12:                                               ; preds = %3, %8
  ret void
}